
;CodeVisionAVR C Compiler V3.12 Advanced
;(C) Copyright 1998-2014 Pavel Haiduc, HP InfoTech s.r.l.
;http://www.hpinfotech.com

;Build configuration    : Debug
;Chip type              : ATmega328P
;Program type           : Application
;Clock frequency        : 16.000000 MHz
;Memory model           : Small
;Optimize for           : Speed
;(s)printf features     : int, width
;(s)scanf features      : int, width
;External RAM size      : 0
;Data Stack size        : 512 byte(s)
;Heap size              : 0 byte(s)
;Promote 'char' to 'int': Yes
;'char' is unsigned     : Yes
;8 bit enums            : Yes
;Global 'const' stored in FLASH: No
;Enhanced function parameter passing: Yes
;Enhanced core instructions: On
;Automatic register allocation for global variables: On
;Smart register allocation: On

	#define _MODEL_SMALL_

	#pragma AVRPART ADMIN PART_NAME ATmega328P
	#pragma AVRPART MEMORY PROG_FLASH 32768
	#pragma AVRPART MEMORY EEPROM 1024
	#pragma AVRPART MEMORY INT_SRAM SIZE 2048
	#pragma AVRPART MEMORY INT_SRAM START_ADDR 0x100

	#define CALL_SUPPORTED 1

	.LISTMAC
	.EQU EERE=0x0
	.EQU EEWE=0x1
	.EQU EEMWE=0x2
	.EQU UDRE=0x5
	.EQU RXC=0x7
	.EQU EECR=0x1F
	.EQU EEDR=0x20
	.EQU EEARL=0x21
	.EQU EEARH=0x22
	.EQU SPSR=0x2D
	.EQU SPDR=0x2E
	.EQU SMCR=0x33
	.EQU MCUSR=0x34
	.EQU MCUCR=0x35
	.EQU WDTCSR=0x60
	.EQU UCSR0A=0xC0
	.EQU UDR0=0xC6
	.EQU SPL=0x3D
	.EQU SPH=0x3E
	.EQU SREG=0x3F
	.EQU GPIOR0=0x1E

	.DEF R0X0=R0
	.DEF R0X1=R1
	.DEF R0X2=R2
	.DEF R0X3=R3
	.DEF R0X4=R4
	.DEF R0X5=R5
	.DEF R0X6=R6
	.DEF R0X7=R7
	.DEF R0X8=R8
	.DEF R0X9=R9
	.DEF R0XA=R10
	.DEF R0XB=R11
	.DEF R0XC=R12
	.DEF R0XD=R13
	.DEF R0XE=R14
	.DEF R0XF=R15
	.DEF R0X10=R16
	.DEF R0X11=R17
	.DEF R0X12=R18
	.DEF R0X13=R19
	.DEF R0X14=R20
	.DEF R0X15=R21
	.DEF R0X16=R22
	.DEF R0X17=R23
	.DEF R0X18=R24
	.DEF R0X19=R25
	.DEF R0X1A=R26
	.DEF R0X1B=R27
	.DEF R0X1C=R28
	.DEF R0X1D=R29
	.DEF R0X1E=R30
	.DEF R0X1F=R31

	.EQU __SRAM_START=0x0100
	.EQU __SRAM_END=0x08FF
	.EQU __DSTACK_SIZE=0x0200
	.EQU __HEAP_SIZE=0x0000
	.EQU __CLEAR_SRAM_SIZE=__SRAM_END-__SRAM_START+1

	.MACRO __CPD1N
	CPI  R30,LOW(@0)
	LDI  R26,HIGH(@0)
	CPC  R31,R26
	LDI  R26,BYTE3(@0)
	CPC  R22,R26
	LDI  R26,BYTE4(@0)
	CPC  R23,R26
	.ENDM

	.MACRO __CPD2N
	CPI  R26,LOW(@0)
	LDI  R30,HIGH(@0)
	CPC  R27,R30
	LDI  R30,BYTE3(@0)
	CPC  R24,R30
	LDI  R30,BYTE4(@0)
	CPC  R25,R30
	.ENDM

	.MACRO __CPWRR
	CP   R@0,R@2
	CPC  R@1,R@3
	.ENDM

	.MACRO __CPWRN
	CPI  R@0,LOW(@2)
	LDI  R30,HIGH(@2)
	CPC  R@1,R30
	.ENDM

	.MACRO __ADDB1MN
	SUBI R30,LOW(-@0-(@1))
	.ENDM

	.MACRO __ADDB2MN
	SUBI R26,LOW(-@0-(@1))
	.ENDM

	.MACRO __ADDW1MN
	SUBI R30,LOW(-@0-(@1))
	SBCI R31,HIGH(-@0-(@1))
	.ENDM

	.MACRO __ADDW2MN
	SUBI R26,LOW(-@0-(@1))
	SBCI R27,HIGH(-@0-(@1))
	.ENDM

	.MACRO __ADDW1FN
	SUBI R30,LOW(-2*@0-(@1))
	SBCI R31,HIGH(-2*@0-(@1))
	.ENDM

	.MACRO __ADDD1FN
	SUBI R30,LOW(-2*@0-(@1))
	SBCI R31,HIGH(-2*@0-(@1))
	SBCI R22,BYTE3(-2*@0-(@1))
	.ENDM

	.MACRO __ADDD1N
	SUBI R30,LOW(-@0)
	SBCI R31,HIGH(-@0)
	SBCI R22,BYTE3(-@0)
	SBCI R23,BYTE4(-@0)
	.ENDM

	.MACRO __ADDD2N
	SUBI R26,LOW(-@0)
	SBCI R27,HIGH(-@0)
	SBCI R24,BYTE3(-@0)
	SBCI R25,BYTE4(-@0)
	.ENDM

	.MACRO __SUBD1N
	SUBI R30,LOW(@0)
	SBCI R31,HIGH(@0)
	SBCI R22,BYTE3(@0)
	SBCI R23,BYTE4(@0)
	.ENDM

	.MACRO __SUBD2N
	SUBI R26,LOW(@0)
	SBCI R27,HIGH(@0)
	SBCI R24,BYTE3(@0)
	SBCI R25,BYTE4(@0)
	.ENDM

	.MACRO __ANDBMNN
	LDS  R30,@0+(@1)
	ANDI R30,LOW(@2)
	STS  @0+(@1),R30
	.ENDM

	.MACRO __ANDWMNN
	LDS  R30,@0+(@1)
	ANDI R30,LOW(@2)
	STS  @0+(@1),R30
	LDS  R30,@0+(@1)+1
	ANDI R30,HIGH(@2)
	STS  @0+(@1)+1,R30
	.ENDM

	.MACRO __ANDD1N
	ANDI R30,LOW(@0)
	ANDI R31,HIGH(@0)
	ANDI R22,BYTE3(@0)
	ANDI R23,BYTE4(@0)
	.ENDM

	.MACRO __ANDD2N
	ANDI R26,LOW(@0)
	ANDI R27,HIGH(@0)
	ANDI R24,BYTE3(@0)
	ANDI R25,BYTE4(@0)
	.ENDM

	.MACRO __ORBMNN
	LDS  R30,@0+(@1)
	ORI  R30,LOW(@2)
	STS  @0+(@1),R30
	.ENDM

	.MACRO __ORWMNN
	LDS  R30,@0+(@1)
	ORI  R30,LOW(@2)
	STS  @0+(@1),R30
	LDS  R30,@0+(@1)+1
	ORI  R30,HIGH(@2)
	STS  @0+(@1)+1,R30
	.ENDM

	.MACRO __ORD1N
	ORI  R30,LOW(@0)
	ORI  R31,HIGH(@0)
	ORI  R22,BYTE3(@0)
	ORI  R23,BYTE4(@0)
	.ENDM

	.MACRO __ORD2N
	ORI  R26,LOW(@0)
	ORI  R27,HIGH(@0)
	ORI  R24,BYTE3(@0)
	ORI  R25,BYTE4(@0)
	.ENDM

	.MACRO __DELAY_USB
	LDI  R24,LOW(@0)
__DELAY_USB_LOOP:
	DEC  R24
	BRNE __DELAY_USB_LOOP
	.ENDM

	.MACRO __DELAY_USW
	LDI  R24,LOW(@0)
	LDI  R25,HIGH(@0)
__DELAY_USW_LOOP:
	SBIW R24,1
	BRNE __DELAY_USW_LOOP
	.ENDM

	.MACRO __GETD1S
	LDD  R30,Y+@0
	LDD  R31,Y+@0+1
	LDD  R22,Y+@0+2
	LDD  R23,Y+@0+3
	.ENDM

	.MACRO __GETD2S
	LDD  R26,Y+@0
	LDD  R27,Y+@0+1
	LDD  R24,Y+@0+2
	LDD  R25,Y+@0+3
	.ENDM

	.MACRO __PUTD1S
	STD  Y+@0,R30
	STD  Y+@0+1,R31
	STD  Y+@0+2,R22
	STD  Y+@0+3,R23
	.ENDM

	.MACRO __PUTD2S
	STD  Y+@0,R26
	STD  Y+@0+1,R27
	STD  Y+@0+2,R24
	STD  Y+@0+3,R25
	.ENDM

	.MACRO __PUTDZ2
	STD  Z+@0,R26
	STD  Z+@0+1,R27
	STD  Z+@0+2,R24
	STD  Z+@0+3,R25
	.ENDM

	.MACRO __CLRD1S
	STD  Y+@0,R30
	STD  Y+@0+1,R30
	STD  Y+@0+2,R30
	STD  Y+@0+3,R30
	.ENDM

	.MACRO __POINTB1MN
	LDI  R30,LOW(@0+(@1))
	.ENDM

	.MACRO __POINTW1MN
	LDI  R30,LOW(@0+(@1))
	LDI  R31,HIGH(@0+(@1))
	.ENDM

	.MACRO __POINTD1M
	LDI  R30,LOW(@0)
	LDI  R31,HIGH(@0)
	LDI  R22,BYTE3(@0)
	LDI  R23,BYTE4(@0)
	.ENDM

	.MACRO __POINTW1FN
	LDI  R30,LOW(2*@0+(@1))
	LDI  R31,HIGH(2*@0+(@1))
	.ENDM

	.MACRO __POINTD1FN
	LDI  R30,LOW(2*@0+(@1))
	LDI  R31,HIGH(2*@0+(@1))
	LDI  R22,BYTE3(2*@0+(@1))
	LDI  R23,BYTE4(2*@0+(@1))
	.ENDM

	.MACRO __POINTB2MN
	LDI  R26,LOW(@0+(@1))
	.ENDM

	.MACRO __POINTW2MN
	LDI  R26,LOW(@0+(@1))
	LDI  R27,HIGH(@0+(@1))
	.ENDM

	.MACRO __POINTW2FN
	LDI  R26,LOW(2*@0+(@1))
	LDI  R27,HIGH(2*@0+(@1))
	.ENDM

	.MACRO __POINTD2FN
	LDI  R26,LOW(2*@0+(@1))
	LDI  R27,HIGH(2*@0+(@1))
	LDI  R24,BYTE3(2*@0+(@1))
	LDI  R25,BYTE4(2*@0+(@1))
	.ENDM

	.MACRO __POINTBRM
	LDI  R@0,LOW(@1)
	.ENDM

	.MACRO __POINTWRM
	LDI  R@0,LOW(@2)
	LDI  R@1,HIGH(@2)
	.ENDM

	.MACRO __POINTBRMN
	LDI  R@0,LOW(@1+(@2))
	.ENDM

	.MACRO __POINTWRMN
	LDI  R@0,LOW(@2+(@3))
	LDI  R@1,HIGH(@2+(@3))
	.ENDM

	.MACRO __POINTWRFN
	LDI  R@0,LOW(@2*2+(@3))
	LDI  R@1,HIGH(@2*2+(@3))
	.ENDM

	.MACRO __GETD1N
	LDI  R30,LOW(@0)
	LDI  R31,HIGH(@0)
	LDI  R22,BYTE3(@0)
	LDI  R23,BYTE4(@0)
	.ENDM

	.MACRO __GETD2N
	LDI  R26,LOW(@0)
	LDI  R27,HIGH(@0)
	LDI  R24,BYTE3(@0)
	LDI  R25,BYTE4(@0)
	.ENDM

	.MACRO __GETB1MN
	LDS  R30,@0+(@1)
	.ENDM

	.MACRO __GETB1HMN
	LDS  R31,@0+(@1)
	.ENDM

	.MACRO __GETW1MN
	LDS  R30,@0+(@1)
	LDS  R31,@0+(@1)+1
	.ENDM

	.MACRO __GETD1MN
	LDS  R30,@0+(@1)
	LDS  R31,@0+(@1)+1
	LDS  R22,@0+(@1)+2
	LDS  R23,@0+(@1)+3
	.ENDM

	.MACRO __GETBRMN
	LDS  R@0,@1+(@2)
	.ENDM

	.MACRO __GETWRMN
	LDS  R@0,@2+(@3)
	LDS  R@1,@2+(@3)+1
	.ENDM

	.MACRO __GETWRZ
	LDD  R@0,Z+@2
	LDD  R@1,Z+@2+1
	.ENDM

	.MACRO __GETD2Z
	LDD  R26,Z+@0
	LDD  R27,Z+@0+1
	LDD  R24,Z+@0+2
	LDD  R25,Z+@0+3
	.ENDM

	.MACRO __GETB2MN
	LDS  R26,@0+(@1)
	.ENDM

	.MACRO __GETW2MN
	LDS  R26,@0+(@1)
	LDS  R27,@0+(@1)+1
	.ENDM

	.MACRO __GETD2MN
	LDS  R26,@0+(@1)
	LDS  R27,@0+(@1)+1
	LDS  R24,@0+(@1)+2
	LDS  R25,@0+(@1)+3
	.ENDM

	.MACRO __PUTB1MN
	STS  @0+(@1),R30
	.ENDM

	.MACRO __PUTW1MN
	STS  @0+(@1),R30
	STS  @0+(@1)+1,R31
	.ENDM

	.MACRO __PUTD1MN
	STS  @0+(@1),R30
	STS  @0+(@1)+1,R31
	STS  @0+(@1)+2,R22
	STS  @0+(@1)+3,R23
	.ENDM

	.MACRO __PUTB1EN
	LDI  R26,LOW(@0+(@1))
	LDI  R27,HIGH(@0+(@1))
	CALL __EEPROMWRB
	.ENDM

	.MACRO __PUTW1EN
	LDI  R26,LOW(@0+(@1))
	LDI  R27,HIGH(@0+(@1))
	CALL __EEPROMWRW
	.ENDM

	.MACRO __PUTD1EN
	LDI  R26,LOW(@0+(@1))
	LDI  R27,HIGH(@0+(@1))
	CALL __EEPROMWRD
	.ENDM

	.MACRO __PUTBR0MN
	STS  @0+(@1),R0
	.ENDM

	.MACRO __PUTBMRN
	STS  @0+(@1),R@2
	.ENDM

	.MACRO __PUTWMRN
	STS  @0+(@1),R@2
	STS  @0+(@1)+1,R@3
	.ENDM

	.MACRO __PUTBZR
	STD  Z+@1,R@0
	.ENDM

	.MACRO __PUTWZR
	STD  Z+@2,R@0
	STD  Z+@2+1,R@1
	.ENDM

	.MACRO __GETW1R
	MOV  R30,R@0
	MOV  R31,R@1
	.ENDM

	.MACRO __GETW2R
	MOV  R26,R@0
	MOV  R27,R@1
	.ENDM

	.MACRO __GETWRN
	LDI  R@0,LOW(@2)
	LDI  R@1,HIGH(@2)
	.ENDM

	.MACRO __PUTW1R
	MOV  R@0,R30
	MOV  R@1,R31
	.ENDM

	.MACRO __PUTW2R
	MOV  R@0,R26
	MOV  R@1,R27
	.ENDM

	.MACRO __ADDWRN
	SUBI R@0,LOW(-@2)
	SBCI R@1,HIGH(-@2)
	.ENDM

	.MACRO __ADDWRR
	ADD  R@0,R@2
	ADC  R@1,R@3
	.ENDM

	.MACRO __SUBWRN
	SUBI R@0,LOW(@2)
	SBCI R@1,HIGH(@2)
	.ENDM

	.MACRO __SUBWRR
	SUB  R@0,R@2
	SBC  R@1,R@3
	.ENDM

	.MACRO __ANDWRN
	ANDI R@0,LOW(@2)
	ANDI R@1,HIGH(@2)
	.ENDM

	.MACRO __ANDWRR
	AND  R@0,R@2
	AND  R@1,R@3
	.ENDM

	.MACRO __ORWRN
	ORI  R@0,LOW(@2)
	ORI  R@1,HIGH(@2)
	.ENDM

	.MACRO __ORWRR
	OR   R@0,R@2
	OR   R@1,R@3
	.ENDM

	.MACRO __EORWRR
	EOR  R@0,R@2
	EOR  R@1,R@3
	.ENDM

	.MACRO __GETWRS
	LDD  R@0,Y+@2
	LDD  R@1,Y+@2+1
	.ENDM

	.MACRO __PUTBSR
	STD  Y+@1,R@0
	.ENDM

	.MACRO __PUTWSR
	STD  Y+@2,R@0
	STD  Y+@2+1,R@1
	.ENDM

	.MACRO __MOVEWRR
	MOV  R@0,R@2
	MOV  R@1,R@3
	.ENDM

	.MACRO __INWR
	IN   R@0,@2
	IN   R@1,@2+1
	.ENDM

	.MACRO __OUTWR
	OUT  @2+1,R@1
	OUT  @2,R@0
	.ENDM

	.MACRO __CALL1MN
	LDS  R30,@0+(@1)
	LDS  R31,@0+(@1)+1
	ICALL
	.ENDM

	.MACRO __CALL1FN
	LDI  R30,LOW(2*@0+(@1))
	LDI  R31,HIGH(2*@0+(@1))
	CALL __GETW1PF
	ICALL
	.ENDM

	.MACRO __CALL2EN
	PUSH R26
	PUSH R27
	LDI  R26,LOW(@0+(@1))
	LDI  R27,HIGH(@0+(@1))
	CALL __EEPROMRDW
	POP  R27
	POP  R26
	ICALL
	.ENDM

	.MACRO __CALL2EX
	SUBI R26,LOW(-@0)
	SBCI R27,HIGH(-@0)
	CALL __EEPROMRDD
	ICALL
	.ENDM

	.MACRO __GETW1STACK
	IN   R30,SPL
	IN   R31,SPH
	ADIW R30,@0+1
	LD   R0,Z+
	LD   R31,Z
	MOV  R30,R0
	.ENDM

	.MACRO __GETD1STACK
	IN   R30,SPL
	IN   R31,SPH
	ADIW R30,@0+1
	LD   R0,Z+
	LD   R1,Z+
	LD   R22,Z
	MOVW R30,R0
	.ENDM

	.MACRO __NBST
	BST  R@0,@1
	IN   R30,SREG
	LDI  R31,0x40
	EOR  R30,R31
	OUT  SREG,R30
	.ENDM


	.MACRO __PUTB1SN
	LDD  R26,Y+@0
	LDD  R27,Y+@0+1
	SUBI R26,LOW(-@1)
	SBCI R27,HIGH(-@1)
	ST   X,R30
	.ENDM

	.MACRO __PUTW1SN
	LDD  R26,Y+@0
	LDD  R27,Y+@0+1
	SUBI R26,LOW(-@1)
	SBCI R27,HIGH(-@1)
	ST   X+,R30
	ST   X,R31
	.ENDM

	.MACRO __PUTD1SN
	LDD  R26,Y+@0
	LDD  R27,Y+@0+1
	SUBI R26,LOW(-@1)
	SBCI R27,HIGH(-@1)
	CALL __PUTDP1
	.ENDM

	.MACRO __PUTB1SNS
	LDD  R26,Y+@0
	LDD  R27,Y+@0+1
	ADIW R26,@1
	ST   X,R30
	.ENDM

	.MACRO __PUTW1SNS
	LDD  R26,Y+@0
	LDD  R27,Y+@0+1
	ADIW R26,@1
	ST   X+,R30
	ST   X,R31
	.ENDM

	.MACRO __PUTD1SNS
	LDD  R26,Y+@0
	LDD  R27,Y+@0+1
	ADIW R26,@1
	CALL __PUTDP1
	.ENDM

	.MACRO __PUTB1PMN
	LDS  R26,@0
	LDS  R27,@0+1
	SUBI R26,LOW(-@1)
	SBCI R27,HIGH(-@1)
	ST   X,R30
	.ENDM

	.MACRO __PUTW1PMN
	LDS  R26,@0
	LDS  R27,@0+1
	SUBI R26,LOW(-@1)
	SBCI R27,HIGH(-@1)
	ST   X+,R30
	ST   X,R31
	.ENDM

	.MACRO __PUTD1PMN
	LDS  R26,@0
	LDS  R27,@0+1
	SUBI R26,LOW(-@1)
	SBCI R27,HIGH(-@1)
	CALL __PUTDP1
	.ENDM

	.MACRO __PUTB1PMNS
	LDS  R26,@0
	LDS  R27,@0+1
	ADIW R26,@1
	ST   X,R30
	.ENDM

	.MACRO __PUTW1PMNS
	LDS  R26,@0
	LDS  R27,@0+1
	ADIW R26,@1
	ST   X+,R30
	ST   X,R31
	.ENDM

	.MACRO __PUTD1PMNS
	LDS  R26,@0
	LDS  R27,@0+1
	ADIW R26,@1
	CALL __PUTDP1
	.ENDM

	.MACRO __PUTB1RN
	MOVW R26,R@0
	SUBI R26,LOW(-@1)
	SBCI R27,HIGH(-@1)
	ST   X,R30
	.ENDM

	.MACRO __PUTW1RN
	MOVW R26,R@0
	SUBI R26,LOW(-@1)
	SBCI R27,HIGH(-@1)
	ST   X+,R30
	ST   X,R31
	.ENDM

	.MACRO __PUTD1RN
	MOVW R26,R@0
	SUBI R26,LOW(-@1)
	SBCI R27,HIGH(-@1)
	CALL __PUTDP1
	.ENDM

	.MACRO __PUTB1RNS
	MOVW R26,R@0
	ADIW R26,@1
	ST   X,R30
	.ENDM

	.MACRO __PUTW1RNS
	MOVW R26,R@0
	ADIW R26,@1
	ST   X+,R30
	ST   X,R31
	.ENDM

	.MACRO __PUTD1RNS
	MOVW R26,R@0
	ADIW R26,@1
	CALL __PUTDP1
	.ENDM

	.MACRO __PUTB1RON
	MOV  R26,R@0
	MOV  R27,R@1
	SUBI R26,LOW(-@2)
	SBCI R27,HIGH(-@2)
	ST   X,R30
	.ENDM

	.MACRO __PUTW1RON
	MOV  R26,R@0
	MOV  R27,R@1
	SUBI R26,LOW(-@2)
	SBCI R27,HIGH(-@2)
	ST   X+,R30
	ST   X,R31
	.ENDM

	.MACRO __PUTD1RON
	MOV  R26,R@0
	MOV  R27,R@1
	SUBI R26,LOW(-@2)
	SBCI R27,HIGH(-@2)
	CALL __PUTDP1
	.ENDM

	.MACRO __PUTB1RONS
	MOV  R26,R@0
	MOV  R27,R@1
	ADIW R26,@2
	ST   X,R30
	.ENDM

	.MACRO __PUTW1RONS
	MOV  R26,R@0
	MOV  R27,R@1
	ADIW R26,@2
	ST   X+,R30
	ST   X,R31
	.ENDM

	.MACRO __PUTD1RONS
	MOV  R26,R@0
	MOV  R27,R@1
	ADIW R26,@2
	CALL __PUTDP1
	.ENDM


	.MACRO __GETB1SX
	MOVW R30,R28
	SUBI R30,LOW(-@0)
	SBCI R31,HIGH(-@0)
	LD   R30,Z
	.ENDM

	.MACRO __GETB1HSX
	MOVW R30,R28
	SUBI R30,LOW(-@0)
	SBCI R31,HIGH(-@0)
	LD   R31,Z
	.ENDM

	.MACRO __GETW1SX
	MOVW R30,R28
	SUBI R30,LOW(-@0)
	SBCI R31,HIGH(-@0)
	LD   R0,Z+
	LD   R31,Z
	MOV  R30,R0
	.ENDM

	.MACRO __GETD1SX
	MOVW R30,R28
	SUBI R30,LOW(-@0)
	SBCI R31,HIGH(-@0)
	LD   R0,Z+
	LD   R1,Z+
	LD   R22,Z+
	LD   R23,Z
	MOVW R30,R0
	.ENDM

	.MACRO __GETB2SX
	MOVW R26,R28
	SUBI R26,LOW(-@0)
	SBCI R27,HIGH(-@0)
	LD   R26,X
	.ENDM

	.MACRO __GETW2SX
	MOVW R26,R28
	SUBI R26,LOW(-@0)
	SBCI R27,HIGH(-@0)
	LD   R0,X+
	LD   R27,X
	MOV  R26,R0
	.ENDM

	.MACRO __GETD2SX
	MOVW R26,R28
	SUBI R26,LOW(-@0)
	SBCI R27,HIGH(-@0)
	LD   R0,X+
	LD   R1,X+
	LD   R24,X+
	LD   R25,X
	MOVW R26,R0
	.ENDM

	.MACRO __GETBRSX
	MOVW R30,R28
	SUBI R30,LOW(-@1)
	SBCI R31,HIGH(-@1)
	LD   R@0,Z
	.ENDM

	.MACRO __GETWRSX
	MOVW R30,R28
	SUBI R30,LOW(-@2)
	SBCI R31,HIGH(-@2)
	LD   R@0,Z+
	LD   R@1,Z
	.ENDM

	.MACRO __GETBRSX2
	MOVW R26,R28
	SUBI R26,LOW(-@1)
	SBCI R27,HIGH(-@1)
	LD   R@0,X
	.ENDM

	.MACRO __GETWRSX2
	MOVW R26,R28
	SUBI R26,LOW(-@2)
	SBCI R27,HIGH(-@2)
	LD   R@0,X+
	LD   R@1,X
	.ENDM

	.MACRO __LSLW8SX
	MOVW R30,R28
	SUBI R30,LOW(-@0)
	SBCI R31,HIGH(-@0)
	LD   R31,Z
	CLR  R30
	.ENDM

	.MACRO __PUTB1SX
	MOVW R26,R28
	SUBI R26,LOW(-@0)
	SBCI R27,HIGH(-@0)
	ST   X,R30
	.ENDM

	.MACRO __PUTW1SX
	MOVW R26,R28
	SUBI R26,LOW(-@0)
	SBCI R27,HIGH(-@0)
	ST   X+,R30
	ST   X,R31
	.ENDM

	.MACRO __PUTD1SX
	MOVW R26,R28
	SUBI R26,LOW(-@0)
	SBCI R27,HIGH(-@0)
	ST   X+,R30
	ST   X+,R31
	ST   X+,R22
	ST   X,R23
	.ENDM

	.MACRO __CLRW1SX
	MOVW R26,R28
	SUBI R26,LOW(-@0)
	SBCI R27,HIGH(-@0)
	ST   X+,R30
	ST   X,R30
	.ENDM

	.MACRO __CLRD1SX
	MOVW R26,R28
	SUBI R26,LOW(-@0)
	SBCI R27,HIGH(-@0)
	ST   X+,R30
	ST   X+,R30
	ST   X+,R30
	ST   X,R30
	.ENDM

	.MACRO __PUTB2SX
	MOVW R30,R28
	SUBI R30,LOW(-@0)
	SBCI R31,HIGH(-@0)
	ST   Z,R26
	.ENDM

	.MACRO __PUTW2SX
	MOVW R30,R28
	SUBI R30,LOW(-@0)
	SBCI R31,HIGH(-@0)
	ST   Z+,R26
	ST   Z,R27
	.ENDM

	.MACRO __PUTD2SX
	MOVW R30,R28
	SUBI R30,LOW(-@0)
	SBCI R31,HIGH(-@0)
	ST   Z+,R26
	ST   Z+,R27
	ST   Z+,R24
	ST   Z,R25
	.ENDM

	.MACRO __PUTBSRX
	MOVW R30,R28
	SUBI R30,LOW(-@1)
	SBCI R31,HIGH(-@1)
	ST   Z,R@0
	.ENDM

	.MACRO __PUTWSRX
	MOVW R30,R28
	SUBI R30,LOW(-@2)
	SBCI R31,HIGH(-@2)
	ST   Z+,R@0
	ST   Z,R@1
	.ENDM

	.MACRO __PUTB1SNX
	MOVW R26,R28
	SUBI R26,LOW(-@0)
	SBCI R27,HIGH(-@0)
	LD   R0,X+
	LD   R27,X
	MOV  R26,R0
	SUBI R26,LOW(-@1)
	SBCI R27,HIGH(-@1)
	ST   X,R30
	.ENDM

	.MACRO __PUTW1SNX
	MOVW R26,R28
	SUBI R26,LOW(-@0)
	SBCI R27,HIGH(-@0)
	LD   R0,X+
	LD   R27,X
	MOV  R26,R0
	SUBI R26,LOW(-@1)
	SBCI R27,HIGH(-@1)
	ST   X+,R30
	ST   X,R31
	.ENDM

	.MACRO __PUTD1SNX
	MOVW R26,R28
	SUBI R26,LOW(-@0)
	SBCI R27,HIGH(-@0)
	LD   R0,X+
	LD   R27,X
	MOV  R26,R0
	SUBI R26,LOW(-@1)
	SBCI R27,HIGH(-@1)
	ST   X+,R30
	ST   X+,R31
	ST   X+,R22
	ST   X,R23
	.ENDM

	.MACRO __MULBRR
	MULS R@0,R@1
	MOVW R30,R0
	.ENDM

	.MACRO __MULBRRU
	MUL  R@0,R@1
	MOVW R30,R0
	.ENDM

	.MACRO __MULBRR0
	MULS R@0,R@1
	.ENDM

	.MACRO __MULBRRU0
	MUL  R@0,R@1
	.ENDM

	.MACRO __MULBNWRU
	LDI  R26,@2
	MUL  R26,R@0
	MOVW R30,R0
	MUL  R26,R@1
	ADD  R31,R0
	.ENDM

;NAME DEFINITIONS FOR GLOBAL VARIABLES ALLOCATED TO REGISTERS
	.DEF _temp=R4
	.DEF _hum=R3

;GPIOR0 INITIALIZATION VALUE
	.EQU __GPIOR0_INIT=0x00

	.CSEG
	.ORG 0x00

;START OF CODE MARKER
__START_OF_CODE:

;INTERRUPT VECTORS
	JMP  __RESET
	JMP  0x00
	JMP  0x00
	JMP  0x00
	JMP  0x00
	JMP  0x00
	JMP  0x00
	JMP  0x00
	JMP  0x00
	JMP  0x00
	JMP  0x00
	JMP  0x00
	JMP  0x00
	JMP  0x00
	JMP  0x00
	JMP  0x00
	JMP  0x00
	JMP  0x00
	JMP  0x00
	JMP  0x00
	JMP  0x00
	JMP  0x00
	JMP  0x00
	JMP  0x00
	JMP  0x00
	JMP  0x00

_tbl10_G100:
	.DB  0x10,0x27,0xE8,0x3,0x64,0x0,0xA,0x0
	.DB  0x1,0x0
_tbl16_G100:
	.DB  0x0,0x10,0x0,0x1,0x10,0x0,0x1,0x0

_0x0:
	.DB  0x54,0x65,0x6D,0x70,0x3A,0x25,0x64,0x20
	.DB  0x43,0x20,0x20,0x20,0x0,0x48,0x75,0x6D
	.DB  0x3A,0x25,0x64,0x20,0x25,0x25,0x20,0x20
	.DB  0x20,0x0,0x44,0x48,0x54,0x31,0x31,0x20
	.DB  0x45,0x72,0x72,0x6F,0x72,0x20,0x20,0x20
	.DB  0x0

__GLOBAL_INI_TBL:
	.DW  0x0F
	.DW  _0x2A
	.DW  _0x0*2+26

_0xFFFFFFFF:
	.DW  0

#define __GLOBAL_INI_TBL_PRESENT 1

__RESET:
	CLI
	CLR  R30
	OUT  EECR,R30

;INTERRUPT VECTORS ARE PLACED
;AT THE START OF FLASH
	LDI  R31,1
	OUT  MCUCR,R31
	OUT  MCUCR,R30

;CLEAR R2-R14
	LDI  R24,(14-2)+1
	LDI  R26,2
	CLR  R27
__CLEAR_REG:
	ST   X+,R30
	DEC  R24
	BRNE __CLEAR_REG

;CLEAR SRAM
	LDI  R24,LOW(__CLEAR_SRAM_SIZE)
	LDI  R25,HIGH(__CLEAR_SRAM_SIZE)
	LDI  R26,LOW(__SRAM_START)
	LDI  R27,HIGH(__SRAM_START)
__CLEAR_SRAM:
	ST   X+,R30
	SBIW R24,1
	BRNE __CLEAR_SRAM

;GLOBAL VARIABLES INITIALIZATION
	LDI  R30,LOW(__GLOBAL_INI_TBL*2)
	LDI  R31,HIGH(__GLOBAL_INI_TBL*2)
__GLOBAL_INI_NEXT:
	LPM  R24,Z+
	LPM  R25,Z+
	SBIW R24,0
	BREQ __GLOBAL_INI_END
	LPM  R26,Z+
	LPM  R27,Z+
	LPM  R0,Z+
	LPM  R1,Z+
	MOVW R22,R30
	MOVW R30,R0
__GLOBAL_INI_LOOP:
	LPM  R0,Z+
	ST   X+,R0
	SBIW R24,1
	BRNE __GLOBAL_INI_LOOP
	MOVW R30,R22
	RJMP __GLOBAL_INI_NEXT
__GLOBAL_INI_END:

;GPIOR0 INITIALIZATION
	LDI  R30,__GPIOR0_INIT
	OUT  GPIOR0,R30

;HARDWARE STACK POINTER INITIALIZATION
	LDI  R30,LOW(__SRAM_END-__HEAP_SIZE)
	OUT  SPL,R30
	LDI  R30,HIGH(__SRAM_END-__HEAP_SIZE)
	OUT  SPH,R30

;DATA STACK POINTER INITIALIZATION
	LDI  R28,LOW(__SRAM_START+__DSTACK_SIZE)
	LDI  R29,HIGH(__SRAM_START+__DSTACK_SIZE)

	JMP  _main

	.ESEG
	.ORG 0

	.DSEG
	.ORG 0x300

	.CSEG
;#include <mega328p.h>
	#ifndef __SLEEP_DEFINED__
	#define __SLEEP_DEFINED__
	.EQU __se_bit=0x01
	.EQU __sm_mask=0x0E
	.EQU __sm_adc_noise_red=0x02
	.EQU __sm_powerdown=0x04
	.EQU __sm_powersave=0x06
	.EQU __sm_standby=0x0C
	.EQU __sm_ext_standby=0x0E
	.SET power_ctrl_reg=smcr
	#endif
;#include <delay.h>
;#include <stdio.h>
;
;// LCD Connections based on your image
;// RS  -> PORTD.4
;// RW  -> GND (connected to ground - always write mode)
;// EN  -> PORTD.5
;// D4  -> PORTD.6
;// D5  -> PORTD.7
;// D6  -> PORTB.0
;// D7  -> PORTB.1
;
;// Define LCD ports and pins
;#define LCD_RS_PORT PORTD
;#define LCD_RS_DDR  DDRD
;#define LCD_RS_PIN  4
;
;#define LCD_EN_PORT PORTD
;#define LCD_EN_DDR  DDRD
;#define LCD_EN_PIN  5
;
;#define LCD_D4_PORT PORTD
;#define LCD_D4_DDR  DDRD
;#define LCD_D4_PIN  6
;
;#define LCD_D5_PORT PORTD
;#define LCD_D5_DDR  DDRD
;#define LCD_D5_PIN  7
;
;#define LCD_D6_PORT PORTB
;#define LCD_D6_DDR  DDRB
;#define LCD_D6_PIN  0
;
;#define LCD_D7_PORT PORTB
;#define LCD_D7_DDR  DDRB
;#define LCD_D7_PIN  1
;
;unsigned char temp, hum;
;
;// Function prototypes
;void lcd_cmd(unsigned char cmd);
;void lcd_data(unsigned char data);
;void lcd_init(void);
;void lcd_gotoxy(unsigned char x, unsigned char y);
;void lcd_puts(char *str);
;void lcd_clear(void);
;void lcd_pulse_enable(void);
;void lcd_send_nibble(unsigned char nibble);
;
;// DHT11 read function
;unsigned char humid_read(unsigned char *temperature, unsigned char *humidity)
; 0000 0035 {

	.CSEG
_humid_read:
; .FSTART _humid_read
; 0000 0036     unsigned char i, j;
; 0000 0037     unsigned char data[5] = {0, 0, 0, 0, 0};
; 0000 0038 
; 0000 0039     // Start signal
; 0000 003A     DDRD |= (1 << 2);      // PD2 output (DHT11 data pin)
	ST   -Y,R27
	ST   -Y,R26
	SBIW R28,5
	LDI  R30,LOW(0)
	ST   Y,R30
	STD  Y+1,R30
	STD  Y+2,R30
	STD  Y+3,R30
	STD  Y+4,R30
	ST   -Y,R17
	ST   -Y,R16
;	*temperature -> Y+9
;	*humidity -> Y+7
;	i -> R17
;	j -> R16
;	data -> Y+2
	SBI  0xA,2
; 0000 003B     PORTD &= ~(1 << 2);    // pull low
	CBI  0xB,2
; 0000 003C     delay_ms(18);
	LDI  R26,LOW(18)
	LDI  R27,0
	CALL _delay_ms
; 0000 003D 
; 0000 003E     PORTD |= (1 << 2);     // pull high
	SBI  0xB,2
; 0000 003F     delay_us(30);
	__DELAY_USB 160
; 0000 0040     DDRD &= ~(1 << 2);     // PD2 input
	CBI  0xA,2
; 0000 0041 
; 0000 0042     // Check response
; 0000 0043     if (PIND & (1 << 2))
	SBIS 0x9,2
	RJMP _0x3
; 0000 0044         return 1;
	LDI  R30,LOW(1)
	RJMP _0x2060004
; 0000 0045 
; 0000 0046     // Wait for DHT to pull low
; 0000 0047     while (!(PIND & (1 << 2)));
_0x3:
_0x4:
	SBIS 0x9,2
	RJMP _0x4
; 0000 0048 
; 0000 0049     // Wait for DHT to pull high
; 0000 004A     while (PIND & (1 << 2));
_0x7:
	SBIC 0x9,2
	RJMP _0x7
; 0000 004B 
; 0000 004C     // Read 5 bytes of data
; 0000 004D     for(j = 0; j < 5; j++)
	LDI  R16,LOW(0)
_0xB:
	CPI  R16,5
	BRSH _0xC
; 0000 004E     {
; 0000 004F         for(i = 0; i < 8; i++)
	LDI  R17,LOW(0)
_0xE:
	CPI  R17,8
	BRSH _0xF
; 0000 0050         {
; 0000 0051             // Wait for pin to go high
; 0000 0052             while (!(PIND & (1 << 2)));
_0x10:
	SBIS 0x9,2
	RJMP _0x10
; 0000 0053 
; 0000 0054             // Wait 30us to sample
; 0000 0055             delay_us(30);
	__DELAY_USB 160
; 0000 0056 
; 0000 0057             // Check if bit is 1 or 0
; 0000 0058             if (PIND & (1 << 2))
	SBIS 0x9,2
	RJMP _0x13
; 0000 0059                 data[j] |= (1 << (7 - i));
	MOV  R30,R16
	LDI  R31,0
	MOVW R26,R28
	ADIW R26,2
	ADD  R30,R26
	ADC  R31,R27
	MOVW R22,R30
	LD   R1,Z
	LDI  R30,LOW(7)
	SUB  R30,R17
	LDI  R26,LOW(1)
	CALL __LSLB12
	OR   R30,R1
	MOVW R26,R22
	ST   X,R30
; 0000 005A 
; 0000 005B             // Wait for pin to go low
; 0000 005C             while (PIND & (1 << 2));
_0x13:
_0x14:
	SBIC 0x9,2
	RJMP _0x14
; 0000 005D         }
	SUBI R17,-1
	RJMP _0xE
_0xF:
; 0000 005E     }
	SUBI R16,-1
	RJMP _0xB
_0xC:
; 0000 005F 
; 0000 0060     // Verify checksum
; 0000 0061     if((data[0] + data[1] + data[2] + data[3]) == data[4])
	LDD  R26,Y+2
	CLR  R27
	LDD  R30,Y+3
	LDI  R31,0
	ADD  R26,R30
	ADC  R27,R31
	LDD  R30,Y+4
	LDI  R31,0
	ADD  R26,R30
	ADC  R27,R31
	LDD  R30,Y+5
	LDI  R31,0
	ADD  R26,R30
	ADC  R27,R31
	LDD  R30,Y+6
	LDI  R31,0
	CP   R30,R26
	CPC  R31,R27
	BRNE _0x17
; 0000 0062     {
; 0000 0063         *humidity = data[0];
	LDD  R30,Y+2
	LDD  R26,Y+7
	LDD  R27,Y+7+1
	ST   X,R30
; 0000 0064         *temperature = data[2];
	LDD  R30,Y+4
	LDD  R26,Y+9
	LDD  R27,Y+9+1
	ST   X,R30
; 0000 0065         return 0;
	LDI  R30,LOW(0)
	RJMP _0x2060004
; 0000 0066     }
; 0000 0067 
; 0000 0068     return 2;
_0x17:
	LDI  R30,LOW(2)
_0x2060004:
	LDD  R17,Y+1
	LDD  R16,Y+0
	ADIW R28,11
	RET
; 0000 0069 }
; .FEND
;
;// LCD Functions
;void lcd_pulse_enable(void)
; 0000 006D {
_lcd_pulse_enable:
; .FSTART _lcd_pulse_enable
; 0000 006E     LCD_EN_PORT |= (1 << LCD_EN_PIN);
	SBI  0xB,5
; 0000 006F     delay_us(2);
	__DELAY_USB 11
; 0000 0070     LCD_EN_PORT &= ~(1 << LCD_EN_PIN);
	CBI  0xB,5
; 0000 0071     delay_us(2);
	__DELAY_USB 11
; 0000 0072 }
	RET
; .FEND
;
;void lcd_send_nibble(unsigned char nibble)
; 0000 0075 {
_lcd_send_nibble:
; .FSTART _lcd_send_nibble
; 0000 0076     // Set D4 (PORTD.6)
; 0000 0077     if(nibble & 0x10)
	ST   -Y,R26
;	nibble -> Y+0
	LD   R30,Y
	ANDI R30,LOW(0x10)
	BREQ _0x18
; 0000 0078         LCD_D4_PORT |= (1 << LCD_D4_PIN);
	SBI  0xB,6
; 0000 0079     else
	RJMP _0x19
_0x18:
; 0000 007A         LCD_D4_PORT &= ~(1 << LCD_D4_PIN);
	CBI  0xB,6
; 0000 007B 
; 0000 007C     // Set D5 (PORTD.7)
; 0000 007D     if(nibble & 0x20)
_0x19:
	LD   R30,Y
	ANDI R30,LOW(0x20)
	BREQ _0x1A
; 0000 007E         LCD_D5_PORT |= (1 << LCD_D5_PIN);
	SBI  0xB,7
; 0000 007F     else
	RJMP _0x1B
_0x1A:
; 0000 0080         LCD_D5_PORT &= ~(1 << LCD_D5_PIN);
	CBI  0xB,7
; 0000 0081 
; 0000 0082     // Set D6 (PORTB.0)
; 0000 0083     if(nibble & 0x40)
_0x1B:
	LD   R30,Y
	ANDI R30,LOW(0x40)
	BREQ _0x1C
; 0000 0084         LCD_D6_PORT |= (1 << LCD_D6_PIN);
	SBI  0x5,0
; 0000 0085     else
	RJMP _0x1D
_0x1C:
; 0000 0086         LCD_D6_PORT &= ~(1 << LCD_D6_PIN);
	CBI  0x5,0
; 0000 0087 
; 0000 0088     // Set D7 (PORTB.1)
; 0000 0089     if(nibble & 0x80)
_0x1D:
	LD   R30,Y
	ANDI R30,LOW(0x80)
	BREQ _0x1E
; 0000 008A         LCD_D7_PORT |= (1 << LCD_D7_PIN);
	SBI  0x5,1
; 0000 008B     else
	RJMP _0x1F
_0x1E:
; 0000 008C         LCD_D7_PORT &= ~(1 << LCD_D7_PIN);
	CBI  0x5,1
; 0000 008D 
; 0000 008E     lcd_pulse_enable();
_0x1F:
	RCALL _lcd_pulse_enable
; 0000 008F }
	RJMP _0x2060003
; .FEND
;
;void lcd_cmd(unsigned char cmd)
; 0000 0092 {
_lcd_cmd:
; .FSTART _lcd_cmd
; 0000 0093     // RS = 0 for command
; 0000 0094     LCD_RS_PORT &= ~(1 << LCD_RS_PIN);
	ST   -Y,R26
;	cmd -> Y+0
	CBI  0xB,4
; 0000 0095 
; 0000 0096     // Send upper nibble
; 0000 0097     lcd_send_nibble(cmd & 0xF0);
	LD   R30,Y
	ANDI R30,LOW(0xF0)
	MOV  R26,R30
	RCALL _lcd_send_nibble
; 0000 0098 
; 0000 0099     // Send lower nibble
; 0000 009A     lcd_send_nibble((cmd << 4) & 0xF0);
	LD   R30,Y
	SWAP R30
	ANDI R30,LOW(0xF0)
	MOV  R26,R30
	RCALL _lcd_send_nibble
; 0000 009B 
; 0000 009C     delay_ms(2);
	LDI  R26,LOW(2)
	LDI  R27,0
	CALL _delay_ms
; 0000 009D }
	RJMP _0x2060003
; .FEND
;
;void lcd_data(unsigned char data)
; 0000 00A0 {
_lcd_data:
; .FSTART _lcd_data
; 0000 00A1     // RS = 1 for data
; 0000 00A2     LCD_RS_PORT |= (1 << LCD_RS_PIN);
	ST   -Y,R26
;	data -> Y+0
	SBI  0xB,4
; 0000 00A3 
; 0000 00A4     // Send upper nibble
; 0000 00A5     lcd_send_nibble(data & 0xF0);
	LD   R30,Y
	ANDI R30,LOW(0xF0)
	MOV  R26,R30
	RCALL _lcd_send_nibble
; 0000 00A6 
; 0000 00A7     // Send lower nibble
; 0000 00A8     lcd_send_nibble((data << 4) & 0xF0);
	LD   R30,Y
	SWAP R30
	ANDI R30,LOW(0xF0)
	MOV  R26,R30
	RCALL _lcd_send_nibble
; 0000 00A9 
; 0000 00AA     delay_us(50);
	__DELAY_USW 200
; 0000 00AB }
_0x2060003:
	ADIW R28,1
	RET
; .FEND
;
;void lcd_init(void)
; 0000 00AE {
_lcd_init:
; .FSTART _lcd_init
; 0000 00AF     // Configure all LCD pins as outputs
; 0000 00B0     // RS pin
; 0000 00B1     LCD_RS_DDR |= (1 << LCD_RS_PIN);
	SBI  0xA,4
; 0000 00B2     LCD_RS_PORT &= ~(1 << LCD_RS_PIN);  // Start with RS low
	CBI  0xB,4
; 0000 00B3 
; 0000 00B4     // EN pin
; 0000 00B5     LCD_EN_DDR |= (1 << LCD_EN_PIN);
	SBI  0xA,5
; 0000 00B6     LCD_EN_PORT &= ~(1 << LCD_EN_PIN);  // Start with EN low
	CBI  0xB,5
; 0000 00B7 
; 0000 00B8     // D4-D7 pins
; 0000 00B9     LCD_D4_DDR |= (1 << LCD_D4_PIN);
	SBI  0xA,6
; 0000 00BA     LCD_D5_DDR |= (1 << LCD_D5_PIN);
	SBI  0xA,7
; 0000 00BB     LCD_D6_DDR |= (1 << LCD_D6_PIN);
	SBI  0x4,0
; 0000 00BC     LCD_D7_DDR |= (1 << LCD_D7_PIN);
	SBI  0x4,1
; 0000 00BD 
; 0000 00BE     // Initialize all data pins to low
; 0000 00BF     LCD_D4_PORT &= ~(1 << LCD_D4_PIN);
	CBI  0xB,6
; 0000 00C0     LCD_D5_PORT &= ~(1 << LCD_D5_PIN);
	CBI  0xB,7
; 0000 00C1     LCD_D6_PORT &= ~(1 << LCD_D6_PIN);
	CBI  0x5,0
; 0000 00C2     LCD_D7_PORT &= ~(1 << LCD_D7_PIN);
	CBI  0x5,1
; 0000 00C3 
; 0000 00C4     delay_ms(20);  // Wait for LCD to power up
	LDI  R26,LOW(20)
	LDI  R27,0
	CALL _delay_ms
; 0000 00C5 
; 0000 00C6     // Initialization sequence
; 0000 00C7     lcd_send_nibble(0x30);  // Function set 8-bit
	LDI  R26,LOW(48)
	RCALL _lcd_send_nibble
; 0000 00C8     delay_ms(5);
	LDI  R26,LOW(5)
	LDI  R27,0
	CALL _delay_ms
; 0000 00C9     lcd_send_nibble(0x30);  // Function set 8-bit
	LDI  R26,LOW(48)
	RCALL _lcd_send_nibble
; 0000 00CA     delay_us(150);
	__DELAY_USW 600
; 0000 00CB     lcd_send_nibble(0x30);  // Function set 8-bit
	LDI  R26,LOW(48)
	RCALL _lcd_send_nibble
; 0000 00CC     delay_ms(5);
	LDI  R26,LOW(5)
	LDI  R27,0
	CALL _delay_ms
; 0000 00CD 
; 0000 00CE     // Set to 4-bit mode
; 0000 00CF     lcd_send_nibble(0x20);  // Function set 4-bit
	LDI  R26,LOW(32)
	RCALL _lcd_send_nibble
; 0000 00D0     delay_ms(5);
	LDI  R26,LOW(5)
	LDI  R27,0
	CALL _delay_ms
; 0000 00D1 
; 0000 00D2     // Now in 4-bit mode, we can use lcd_cmd
; 0000 00D3     // Function set: 4-bit, 2 lines, 5x7 dots
; 0000 00D4     lcd_cmd(0x28);
	LDI  R26,LOW(40)
	RCALL _lcd_cmd
; 0000 00D5     delay_ms(1);
	LDI  R26,LOW(1)
	LDI  R27,0
	CALL _delay_ms
; 0000 00D6 
; 0000 00D7     // Display on, cursor off
; 0000 00D8     lcd_cmd(0x0C);
	LDI  R26,LOW(12)
	RCALL _lcd_cmd
; 0000 00D9     delay_ms(1);
	LDI  R26,LOW(1)
	LDI  R27,0
	CALL _delay_ms
; 0000 00DA 
; 0000 00DB     // Clear display
; 0000 00DC     lcd_cmd(0x01);
	LDI  R26,LOW(1)
	RCALL _lcd_cmd
; 0000 00DD     delay_ms(2);
	LDI  R26,LOW(2)
	LDI  R27,0
	CALL _delay_ms
; 0000 00DE 
; 0000 00DF     // Entry mode set: increment, no shift
; 0000 00E0     lcd_cmd(0x06);
	LDI  R26,LOW(6)
	RCALL _lcd_cmd
; 0000 00E1     delay_ms(1);
	LDI  R26,LOW(1)
	RJMP _0x2060002
; 0000 00E2 }
; .FEND
;
;void lcd_gotoxy(unsigned char x, unsigned char y)
; 0000 00E5 {
_lcd_gotoxy:
; .FSTART _lcd_gotoxy
; 0000 00E6     unsigned char address;
; 0000 00E7 
; 0000 00E8     if(y == 0)
	ST   -Y,R26
	ST   -Y,R17
;	x -> Y+2
;	y -> Y+1
;	address -> R17
	LDD  R30,Y+1
	CPI  R30,0
	BRNE _0x20
; 0000 00E9         address = 0x80 + x;
	LDD  R30,Y+2
	SUBI R30,-LOW(128)
	RJMP _0x2C
; 0000 00EA     else
_0x20:
; 0000 00EB         address = 0xC0 + x;
	LDD  R30,Y+2
	SUBI R30,-LOW(192)
_0x2C:
	MOV  R17,R30
; 0000 00EC 
; 0000 00ED     lcd_cmd(address);
	MOV  R26,R17
	RCALL _lcd_cmd
; 0000 00EE }
	LDD  R17,Y+0
	ADIW R28,3
	RET
; .FEND
;
;void lcd_puts(char *str)
; 0000 00F1 {
_lcd_puts:
; .FSTART _lcd_puts
; 0000 00F2     while(*str)
	ST   -Y,R27
	ST   -Y,R26
;	*str -> Y+0
_0x22:
	LD   R26,Y
	LDD  R27,Y+1
	LD   R30,X
	CPI  R30,0
	BREQ _0x24
; 0000 00F3     {
; 0000 00F4         lcd_data(*str++);
	LD   R30,X+
	ST   Y,R26
	STD  Y+1,R27
	MOV  R26,R30
	RCALL _lcd_data
; 0000 00F5     }
	RJMP _0x22
_0x24:
; 0000 00F6 }
	ADIW R28,2
	RET
; .FEND
;
;void lcd_clear(void)
; 0000 00F9 {
_lcd_clear:
; .FSTART _lcd_clear
; 0000 00FA     lcd_cmd(0x01);
	LDI  R26,LOW(1)
	RCALL _lcd_cmd
; 0000 00FB     delay_ms(2);
	LDI  R26,LOW(2)
_0x2060002:
	LDI  R27,0
	CALL _delay_ms
; 0000 00FC }
	RET
; .FEND
;
;void main(void)
; 0000 00FF {
_main:
; .FSTART _main
; 0000 0100     char buffer[17];
; 0000 0101 
; 0000 0102     // Initialize LCD
; 0000 0103     lcd_init();
	SBIW R28,17
;	buffer -> Y+0
	RCALL _lcd_init
; 0000 0104     lcd_clear();
	RCALL _lcd_clear
; 0000 0105 
; 0000 0106     while(1)
_0x25:
; 0000 0107     {
; 0000 0108         if(humid_read(&temp, &hum) == 0)
	LDI  R30,LOW(4)
	LDI  R31,HIGH(4)
	ST   -Y,R31
	ST   -Y,R30
	LDI  R26,LOW(3)
	LDI  R27,HIGH(3)
	RCALL _humid_read
	CPI  R30,0
	BRNE _0x28
; 0000 0109         {
; 0000 010A             lcd_gotoxy(0, 0);
	LDI  R30,LOW(0)
	ST   -Y,R30
	LDI  R26,LOW(0)
	RCALL _lcd_gotoxy
; 0000 010B             sprintf(buffer, "Temp:%d C   ", temp);
	MOVW R30,R28
	ST   -Y,R31
	ST   -Y,R30
	__POINTW1FN _0x0,0
	ST   -Y,R31
	ST   -Y,R30
	MOV  R30,R4
	CLR  R31
	CLR  R22
	CLR  R23
	CALL __PUTPARD1
	LDI  R24,4
	RCALL _sprintf
	ADIW R28,8
; 0000 010C             lcd_puts(buffer);
	MOVW R26,R28
	RCALL _lcd_puts
; 0000 010D 
; 0000 010E             lcd_gotoxy(0, 1);
	LDI  R30,LOW(0)
	ST   -Y,R30
	LDI  R26,LOW(1)
	RCALL _lcd_gotoxy
; 0000 010F             sprintf(buffer, "Hum:%d %%   ", hum);
	MOVW R30,R28
	ST   -Y,R31
	ST   -Y,R30
	__POINTW1FN _0x0,13
	ST   -Y,R31
	ST   -Y,R30
	MOV  R30,R3
	CLR  R31
	CLR  R22
	CLR  R23
	CALL __PUTPARD1
	LDI  R24,4
	RCALL _sprintf
	ADIW R28,8
; 0000 0110             lcd_puts(buffer);
	MOVW R26,R28
	RJMP _0x2D
; 0000 0111         }
; 0000 0112         else
_0x28:
; 0000 0113         {
; 0000 0114             lcd_gotoxy(0, 0);
	LDI  R30,LOW(0)
	ST   -Y,R30
	LDI  R26,LOW(0)
	RCALL _lcd_gotoxy
; 0000 0115             lcd_puts("DHT11 Error   ");
	__POINTW2MN _0x2A,0
_0x2D:
	RCALL _lcd_puts
; 0000 0116         }
; 0000 0117 
; 0000 0118         delay_ms(2000);
	LDI  R26,LOW(2000)
	LDI  R27,HIGH(2000)
	CALL _delay_ms
; 0000 0119     }
	RJMP _0x25
; 0000 011A }
_0x2B:
	RJMP _0x2B
; .FEND

	.DSEG
_0x2A:
	.BYTE 0xF
	#ifndef __SLEEP_DEFINED__
	#define __SLEEP_DEFINED__
	.EQU __se_bit=0x01
	.EQU __sm_mask=0x0E
	.EQU __sm_adc_noise_red=0x02
	.EQU __sm_powerdown=0x04
	.EQU __sm_powersave=0x06
	.EQU __sm_standby=0x0C
	.EQU __sm_ext_standby=0x0E
	.SET power_ctrl_reg=smcr
	#endif

	.CSEG
_put_buff_G100:
; .FSTART _put_buff_G100
	ST   -Y,R27
	ST   -Y,R26
	ST   -Y,R17
	ST   -Y,R16
	LDD  R26,Y+2
	LDD  R27,Y+2+1
	ADIW R26,2
	CALL __GETW1P
	SBIW R30,0
	BREQ _0x2000016
	LDD  R26,Y+2
	LDD  R27,Y+2+1
	ADIW R26,4
	CALL __GETW1P
	MOVW R16,R30
	SBIW R30,0
	BREQ _0x2000018
	__CPWRN 16,17,2
	BRLO _0x2000019
	MOVW R30,R16
	SBIW R30,1
	MOVW R16,R30
	__PUTW1SNS 2,4
_0x2000018:
	LDD  R26,Y+2
	LDD  R27,Y+2+1
	ADIW R26,2
	LD   R30,X+
	LD   R31,X+
	ADIW R30,1
	ST   -X,R31
	ST   -X,R30
	SBIW R30,1
	LDD  R26,Y+4
	STD  Z+0,R26
_0x2000019:
	LDD  R26,Y+2
	LDD  R27,Y+2+1
	CALL __GETW1P
	TST  R31
	BRMI _0x200001A
	LD   R30,X+
	LD   R31,X+
	ADIW R30,1
	ST   -X,R31
	ST   -X,R30
_0x200001A:
	RJMP _0x200001B
_0x2000016:
	LDD  R26,Y+2
	LDD  R27,Y+2+1
	LDI  R30,LOW(65535)
	LDI  R31,HIGH(65535)
	ST   X+,R30
	ST   X,R31
_0x200001B:
	LDD  R17,Y+1
	LDD  R16,Y+0
	ADIW R28,5
	RET
; .FEND
__print_G100:
; .FSTART __print_G100
	ST   -Y,R27
	ST   -Y,R26
	SBIW R28,6
	CALL __SAVELOCR6
	LDI  R17,0
	LDD  R26,Y+12
	LDD  R27,Y+12+1
	LDI  R30,LOW(0)
	LDI  R31,HIGH(0)
	ST   X+,R30
	ST   X,R31
_0x200001C:
	LDD  R30,Y+18
	LDD  R31,Y+18+1
	ADIW R30,1
	STD  Y+18,R30
	STD  Y+18+1,R31
	SBIW R30,1
	LPM  R30,Z
	MOV  R18,R30
	CPI  R30,0
	BRNE PC+2
	RJMP _0x200001E
	MOV  R30,R17
	CPI  R30,0
	BRNE _0x2000022
	CPI  R18,37
	BRNE _0x2000023
	LDI  R17,LOW(1)
	RJMP _0x2000024
_0x2000023:
	ST   -Y,R18
	LDD  R26,Y+13
	LDD  R27,Y+13+1
	LDD  R30,Y+15
	LDD  R31,Y+15+1
	ICALL
_0x2000024:
	RJMP _0x2000021
_0x2000022:
	CPI  R30,LOW(0x1)
	BRNE _0x2000025
	CPI  R18,37
	BRNE _0x2000026
	ST   -Y,R18
	LDD  R26,Y+13
	LDD  R27,Y+13+1
	LDD  R30,Y+15
	LDD  R31,Y+15+1
	ICALL
	RJMP _0x20000D2
_0x2000026:
	LDI  R17,LOW(2)
	LDI  R20,LOW(0)
	LDI  R16,LOW(0)
	CPI  R18,45
	BRNE _0x2000027
	LDI  R16,LOW(1)
	RJMP _0x2000021
_0x2000027:
	CPI  R18,43
	BRNE _0x2000028
	LDI  R20,LOW(43)
	RJMP _0x2000021
_0x2000028:
	CPI  R18,32
	BRNE _0x2000029
	LDI  R20,LOW(32)
	RJMP _0x2000021
_0x2000029:
	RJMP _0x200002A
_0x2000025:
	CPI  R30,LOW(0x2)
	BRNE _0x200002B
_0x200002A:
	LDI  R21,LOW(0)
	LDI  R17,LOW(3)
	CPI  R18,48
	BRNE _0x200002C
	ORI  R16,LOW(128)
	RJMP _0x2000021
_0x200002C:
	RJMP _0x200002D
_0x200002B:
	CPI  R30,LOW(0x3)
	BREQ PC+2
	RJMP _0x2000021
_0x200002D:
	CPI  R18,48
	BRLO _0x2000030
	CPI  R18,58
	BRLO _0x2000031
_0x2000030:
	RJMP _0x200002F
_0x2000031:
	LDI  R26,LOW(10)
	MUL  R21,R26
	MOV  R21,R0
	MOV  R30,R18
	SUBI R30,LOW(48)
	ADD  R21,R30
	RJMP _0x2000021
_0x200002F:
	MOV  R30,R18
	CPI  R30,LOW(0x63)
	BRNE _0x2000035
	LDD  R30,Y+16
	LDD  R31,Y+16+1
	SBIW R30,4
	STD  Y+16,R30
	STD  Y+16+1,R31
	LDD  R26,Z+4
	ST   -Y,R26
	LDD  R26,Y+13
	LDD  R27,Y+13+1
	LDD  R30,Y+15
	LDD  R31,Y+15+1
	ICALL
	RJMP _0x2000036
_0x2000035:
	CPI  R30,LOW(0x73)
	BRNE _0x2000038
	LDD  R30,Y+16
	LDD  R31,Y+16+1
	SBIW R30,4
	STD  Y+16,R30
	STD  Y+16+1,R31
	LDD  R26,Y+16
	LDD  R27,Y+16+1
	ADIW R26,4
	CALL __GETW1P
	STD  Y+6,R30
	STD  Y+6+1,R31
	LDD  R26,Y+6
	LDD  R27,Y+6+1
	CALL _strlen
	MOV  R17,R30
	RJMP _0x2000039
_0x2000038:
	CPI  R30,LOW(0x70)
	BRNE _0x200003B
	LDD  R30,Y+16
	LDD  R31,Y+16+1
	SBIW R30,4
	STD  Y+16,R30
	STD  Y+16+1,R31
	LDD  R26,Y+16
	LDD  R27,Y+16+1
	ADIW R26,4
	CALL __GETW1P
	STD  Y+6,R30
	STD  Y+6+1,R31
	LDD  R26,Y+6
	LDD  R27,Y+6+1
	CALL _strlenf
	MOV  R17,R30
	ORI  R16,LOW(8)
_0x2000039:
	ORI  R16,LOW(2)
	ANDI R16,LOW(127)
	LDI  R19,LOW(0)
	RJMP _0x200003C
_0x200003B:
	CPI  R30,LOW(0x64)
	BREQ _0x200003F
	CPI  R30,LOW(0x69)
	BRNE _0x2000040
_0x200003F:
	ORI  R16,LOW(4)
	RJMP _0x2000041
_0x2000040:
	CPI  R30,LOW(0x75)
	BRNE _0x2000042
_0x2000041:
	LDI  R30,LOW(_tbl10_G100*2)
	LDI  R31,HIGH(_tbl10_G100*2)
	STD  Y+6,R30
	STD  Y+6+1,R31
	LDI  R17,LOW(5)
	RJMP _0x2000043
_0x2000042:
	CPI  R30,LOW(0x58)
	BRNE _0x2000045
	ORI  R16,LOW(8)
	RJMP _0x2000046
_0x2000045:
	CPI  R30,LOW(0x78)
	BREQ PC+2
	RJMP _0x2000077
_0x2000046:
	LDI  R30,LOW(_tbl16_G100*2)
	LDI  R31,HIGH(_tbl16_G100*2)
	STD  Y+6,R30
	STD  Y+6+1,R31
	LDI  R17,LOW(4)
_0x2000043:
	SBRS R16,2
	RJMP _0x2000048
	LDD  R30,Y+16
	LDD  R31,Y+16+1
	SBIW R30,4
	STD  Y+16,R30
	STD  Y+16+1,R31
	LDD  R26,Y+16
	LDD  R27,Y+16+1
	ADIW R26,4
	CALL __GETW1P
	STD  Y+10,R30
	STD  Y+10+1,R31
	LDD  R26,Y+11
	TST  R26
	BRPL _0x2000049
	CALL __ANEGW1
	STD  Y+10,R30
	STD  Y+10+1,R31
	LDI  R20,LOW(45)
_0x2000049:
	CPI  R20,0
	BREQ _0x200004A
	SUBI R17,-LOW(1)
	RJMP _0x200004B
_0x200004A:
	ANDI R16,LOW(251)
_0x200004B:
	RJMP _0x200004C
_0x2000048:
	LDD  R30,Y+16
	LDD  R31,Y+16+1
	SBIW R30,4
	STD  Y+16,R30
	STD  Y+16+1,R31
	LDD  R26,Y+16
	LDD  R27,Y+16+1
	ADIW R26,4
	CALL __GETW1P
	STD  Y+10,R30
	STD  Y+10+1,R31
_0x200004C:
_0x200003C:
	SBRC R16,0
	RJMP _0x200004D
_0x200004E:
	CP   R17,R21
	BRSH _0x2000050
	SBRS R16,7
	RJMP _0x2000051
	SBRS R16,2
	RJMP _0x2000052
	ANDI R16,LOW(251)
	MOV  R18,R20
	SUBI R17,LOW(1)
	RJMP _0x2000053
_0x2000052:
	LDI  R18,LOW(48)
_0x2000053:
	RJMP _0x2000054
_0x2000051:
	LDI  R18,LOW(32)
_0x2000054:
	ST   -Y,R18
	LDD  R26,Y+13
	LDD  R27,Y+13+1
	LDD  R30,Y+15
	LDD  R31,Y+15+1
	ICALL
	SUBI R21,LOW(1)
	RJMP _0x200004E
_0x2000050:
_0x200004D:
	MOV  R19,R17
	SBRS R16,1
	RJMP _0x2000055
_0x2000056:
	CPI  R19,0
	BREQ _0x2000058
	SBRS R16,3
	RJMP _0x2000059
	LDD  R30,Y+6
	LDD  R31,Y+6+1
	LPM  R18,Z+
	STD  Y+6,R30
	STD  Y+6+1,R31
	RJMP _0x200005A
_0x2000059:
	LDD  R26,Y+6
	LDD  R27,Y+6+1
	LD   R18,X+
	STD  Y+6,R26
	STD  Y+6+1,R27
_0x200005A:
	ST   -Y,R18
	LDD  R26,Y+13
	LDD  R27,Y+13+1
	LDD  R30,Y+15
	LDD  R31,Y+15+1
	ICALL
	CPI  R21,0
	BREQ _0x200005B
	SUBI R21,LOW(1)
_0x200005B:
	SUBI R19,LOW(1)
	RJMP _0x2000056
_0x2000058:
	RJMP _0x200005C
_0x2000055:
_0x200005E:
	LDI  R18,LOW(48)
	LDD  R30,Y+6
	LDD  R31,Y+6+1
	CALL __GETW1PF
	STD  Y+8,R30
	STD  Y+8+1,R31
	LDD  R30,Y+6
	LDD  R31,Y+6+1
	ADIW R30,2
	STD  Y+6,R30
	STD  Y+6+1,R31
_0x2000060:
	LDD  R30,Y+8
	LDD  R31,Y+8+1
	LDD  R26,Y+10
	LDD  R27,Y+10+1
	CP   R26,R30
	CPC  R27,R31
	BRLO _0x2000062
	SUBI R18,-LOW(1)
	LDD  R26,Y+8
	LDD  R27,Y+8+1
	LDD  R30,Y+10
	LDD  R31,Y+10+1
	SUB  R30,R26
	SBC  R31,R27
	STD  Y+10,R30
	STD  Y+10+1,R31
	RJMP _0x2000060
_0x2000062:
	CPI  R18,58
	BRLO _0x2000063
	SBRS R16,3
	RJMP _0x2000064
	SUBI R18,-LOW(7)
	RJMP _0x2000065
_0x2000064:
	SUBI R18,-LOW(39)
_0x2000065:
_0x2000063:
	SBRC R16,4
	RJMP _0x2000067
	CPI  R18,49
	BRSH _0x2000069
	LDD  R26,Y+8
	LDD  R27,Y+8+1
	SBIW R26,1
	BRNE _0x2000068
_0x2000069:
	RJMP _0x20000D3
_0x2000068:
	CP   R21,R19
	BRLO _0x200006D
	SBRS R16,0
	RJMP _0x200006E
_0x200006D:
	RJMP _0x200006C
_0x200006E:
	LDI  R18,LOW(32)
	SBRS R16,7
	RJMP _0x200006F
	LDI  R18,LOW(48)
_0x20000D3:
	ORI  R16,LOW(16)
	SBRS R16,2
	RJMP _0x2000070
	ANDI R16,LOW(251)
	ST   -Y,R20
	LDD  R26,Y+13
	LDD  R27,Y+13+1
	LDD  R30,Y+15
	LDD  R31,Y+15+1
	ICALL
	CPI  R21,0
	BREQ _0x2000071
	SUBI R21,LOW(1)
_0x2000071:
_0x2000070:
_0x200006F:
_0x2000067:
	ST   -Y,R18
	LDD  R26,Y+13
	LDD  R27,Y+13+1
	LDD  R30,Y+15
	LDD  R31,Y+15+1
	ICALL
	CPI  R21,0
	BREQ _0x2000072
	SUBI R21,LOW(1)
_0x2000072:
_0x200006C:
	SUBI R19,LOW(1)
	LDD  R26,Y+8
	LDD  R27,Y+8+1
	SBIW R26,2
	BRLO _0x200005F
	RJMP _0x200005E
_0x200005F:
_0x200005C:
	SBRS R16,0
	RJMP _0x2000073
_0x2000074:
	CPI  R21,0
	BREQ _0x2000076
	SUBI R21,LOW(1)
	LDI  R30,LOW(32)
	ST   -Y,R30
	LDD  R26,Y+13
	LDD  R27,Y+13+1
	LDD  R30,Y+15
	LDD  R31,Y+15+1
	ICALL
	RJMP _0x2000074
_0x2000076:
_0x2000073:
_0x2000077:
_0x2000036:
_0x20000D2:
	LDI  R17,LOW(0)
_0x2000021:
	RJMP _0x200001C
_0x200001E:
	LDD  R26,Y+12
	LDD  R27,Y+12+1
	CALL __GETW1P
	CALL __LOADLOCR6
	ADIW R28,20
	RET
; .FEND
_sprintf:
; .FSTART _sprintf
	PUSH R15
	MOV  R15,R24
	SBIW R28,6
	CALL __SAVELOCR4
	MOVW R26,R28
	ADIW R26,12
	CALL __ADDW2R15
	CALL __GETW1P
	SBIW R30,0
	BRNE _0x2000078
	LDI  R30,LOW(65535)
	LDI  R31,HIGH(65535)
	RJMP _0x2060001
_0x2000078:
	MOVW R26,R28
	ADIW R26,6
	CALL __ADDW2R15
	MOVW R16,R26
	MOVW R26,R28
	ADIW R26,12
	CALL __ADDW2R15
	CALL __GETW1P
	STD  Y+6,R30
	STD  Y+6+1,R31
	LDI  R30,LOW(0)
	STD  Y+8,R30
	STD  Y+8+1,R30
	MOVW R26,R28
	ADIW R26,10
	CALL __ADDW2R15
	CALL __GETW1P
	ST   -Y,R31
	ST   -Y,R30
	ST   -Y,R17
	ST   -Y,R16
	LDI  R30,LOW(_put_buff_G100)
	LDI  R31,HIGH(_put_buff_G100)
	ST   -Y,R31
	ST   -Y,R30
	MOVW R26,R28
	ADIW R26,10
	RCALL __print_G100
	MOVW R18,R30
	LDD  R26,Y+6
	LDD  R27,Y+6+1
	LDI  R30,LOW(0)
	ST   X,R30
	MOVW R30,R18
_0x2060001:
	CALL __LOADLOCR4
	ADIW R28,10
	POP  R15
	RET
; .FEND

	.CSEG

	.CSEG
_strlen:
; .FSTART _strlen
	ST   -Y,R27
	ST   -Y,R26
    ld   r26,y+
    ld   r27,y+
    clr  r30
    clr  r31
strlen0:
    ld   r22,x+
    tst  r22
    breq strlen1
    adiw r30,1
    rjmp strlen0
strlen1:
    ret
; .FEND
_strlenf:
; .FSTART _strlenf
	ST   -Y,R27
	ST   -Y,R26
    clr  r26
    clr  r27
    ld   r30,y+
    ld   r31,y+
strlenf0:
	lpm  r0,z+
    tst  r0
    breq strlenf1
    adiw r26,1
    rjmp strlenf0
strlenf1:
    movw r30,r26
    ret
; .FEND

	.CSEG

	.CSEG
_delay_ms:
	adiw r26,0
	breq __delay_ms1
__delay_ms0:
	__DELAY_USW 0xFA0
	wdr
	sbiw r26,1
	brne __delay_ms0
__delay_ms1:
	ret

__ADDW2R15:
	CLR  R0
	ADD  R26,R15
	ADC  R27,R0
	RET

__ANEGW1:
	NEG  R31
	NEG  R30
	SBCI R31,0
	RET

__LSLB12:
	TST  R30
	MOV  R0,R30
	MOV  R30,R26
	BREQ __LSLB12R
__LSLB12L:
	LSL  R30
	DEC  R0
	BRNE __LSLB12L
__LSLB12R:
	RET

__GETW1P:
	LD   R30,X+
	LD   R31,X
	SBIW R26,1
	RET

__GETW1PF:
	LPM  R0,Z+
	LPM  R31,Z
	MOV  R30,R0
	RET

__PUTPARD1:
	ST   -Y,R23
	ST   -Y,R22
	ST   -Y,R31
	ST   -Y,R30
	RET

__SAVELOCR6:
	ST   -Y,R21
__SAVELOCR5:
	ST   -Y,R20
__SAVELOCR4:
	ST   -Y,R19
__SAVELOCR3:
	ST   -Y,R18
__SAVELOCR2:
	ST   -Y,R17
	ST   -Y,R16
	RET

__LOADLOCR6:
	LDD  R21,Y+5
__LOADLOCR5:
	LDD  R20,Y+4
__LOADLOCR4:
	LDD  R19,Y+3
__LOADLOCR3:
	LDD  R18,Y+2
__LOADLOCR2:
	LDD  R17,Y+1
	LD   R16,Y
	RET

;END OF CODE MARKER
__END_OF_CODE:
